target datalayout = "e-m:e-p270:32:32-p271:32:32-p272:64:64-i64:64-i128:128-f80:128-n8:16:32:64-S128"
target triple = "x86_64-unknown-linux-gnu"

%"struct.node::quic::TLSContext::Options" = type { %"class.node::MemoryRetainer", %"class.std::__cxx11::basic_string", %"class.std::__cxx11::basic_string", i8, i8, i8, i8, i8, %"class.std::__cxx11::basic_string", %"class.std::__cxx11::basic_string", %"class.std::__cxx11::basic_string", %"class.std::vector", %"class.std::vector.3", %"class.std::vector.3", %"class.std::vector.3" }
%"class.node::MemoryRetainer" = type { ptr }
%"class.std::__cxx11::basic_string" = type { %"struct.std::__cxx11::basic_string<char>::_Alloc_hider", i64, %union.anon }
%"struct.std::__cxx11::basic_string<char>::_Alloc_hider" = type { ptr }
%union.anon = type { i64, [8 x i8] }
%"class.std::vector" = type { %"struct.std::_Vector_base" }
%"struct.std::_Vector_base" = type { %"struct.std::_Vector_base<std::shared_ptr<node::crypto::KeyObjectData>, std::allocator<std::shared_ptr<node::crypto::KeyObjectData>>>::_Vector_impl" }
%"struct.std::_Vector_base<std::shared_ptr<node::crypto::KeyObjectData>, std::allocator<std::shared_ptr<node::crypto::KeyObjectData>>>::_Vector_impl" = type { %"struct.std::_Vector_base<std::shared_ptr<node::crypto::KeyObjectData>, std::allocator<std::shared_ptr<node::crypto::KeyObjectData>>>::_Vector_impl_data" }
%"struct.std::_Vector_base<std::shared_ptr<node::crypto::KeyObjectData>, std::allocator<std::shared_ptr<node::crypto::KeyObjectData>>>::_Vector_impl_data" = type { ptr, ptr, ptr }
%"class.std::vector.3" = type { %"struct.std::_Vector_base.4" }
%"struct.std::_Vector_base.4" = type { %"struct.std::_Vector_base<node::quic::Store, std::allocator<node::quic::Store>>::_Vector_impl" }
%"struct.std::_Vector_base<node::quic::Store, std::allocator<node::quic::Store>>::_Vector_impl" = type { %"struct.std::_Vector_base<node::quic::Store, std::allocator<node::quic::Store>>::_Vector_impl_data" }
%"struct.std::_Vector_base<node::quic::Store, std::allocator<node::quic::Store>>::_Vector_impl_data" = type { ptr, ptr, ptr }
%"class.node::quic::TLSContext" = type <{ %"class.node::MemoryRetainer", %struct.ngtcp2_crypto_conn_ref, i32, [4 x i8], ptr, ptr, %"struct.node::quic::TLSContext::Options", %"class.node::BaseObjectPtrImpl", %"class.std::unique_ptr", %"class.std::unique_ptr.11", i8, i8, [6 x i8] }>
%struct.ngtcp2_crypto_conn_ref = type { ptr, ptr }
%"class.node::BaseObjectPtrImpl" = type { %union.anon.8 }
%union.anon.8 = type { ptr }
%"class.std::unique_ptr" = type { %"struct.std::__uniq_ptr_data" }
%"struct.std::__uniq_ptr_data" = type { %"class.std::__uniq_ptr_impl" }
%"class.std::__uniq_ptr_impl" = type { %"class.std::tuple" }
%"class.std::tuple" = type { %"struct.std::_Tuple_impl" }
%"struct.std::_Tuple_impl" = type { %"struct.std::_Head_base.10" }
%"struct.std::_Head_base.10" = type { ptr }
%"class.std::unique_ptr.11" = type { %"struct.std::__uniq_ptr_data.12" }
%"struct.std::__uniq_ptr_data.12" = type { %"class.std::__uniq_ptr_impl.13" }
%"class.std::__uniq_ptr_impl.13" = type { %"class.std::tuple.14" }
%"class.std::tuple.14" = type { %"struct.std::_Tuple_impl.15" }
%"struct.std::_Tuple_impl.15" = type { %"struct.std::_Head_base.18" }
%"struct.std::_Head_base.18" = type { ptr }
%"struct.node::OnScopeLeaveImpl" = type <{ %class.anon, i8, [7 x i8] }>
%class.anon = type { ptr }

; Function Attrs: mustprogress nounwind uwtable
define internal void @"_ZZN4node4quic10TLSContext17InitiateKeyUpdateEvENK3$_0clEv"(ptr noundef nonnull align 8 dereferenceable(8) %this) #5 align 2 {
entry:
  %this.addr = alloca ptr, align 8
  store ptr %this, ptr %this.addr, align 8
  %this1 = load ptr, ptr %this.addr, align 8
  %0 = getelementptr inbounds %class.anon, ptr %this1, i32 0, i32 0
  %1 = load ptr, ptr %0, align 8
  %in_key_update_ = getelementptr inbounds %"class.node::quic::TLSContext", ptr %1, i32 0, i32 10
  store i8 0, ptr %in_key_update_, align 8
  ret void
}

; Function Attrs: mustprogress nounwind uwtable
define internal void @"_ZN4node16OnScopeLeaveImplIZNS_4quic10TLSContext17InitiateKeyUpdateEvE3$_0EC2EOS3_"(ptr noundef nonnull align 8 dereferenceable(9) %this, ptr noundef nonnull align 8 dereferenceable(8) %fn) unnamed_addr #5 align 2 {
entry:
  %this.addr = alloca ptr, align 8
  %fn.addr = alloca ptr, align 8
  store ptr %this, ptr %this.addr, align 8
  store ptr %fn, ptr %fn.addr, align 8
  %this1 = load ptr, ptr %this.addr, align 8
  %fn_ = getelementptr inbounds %"struct.node::OnScopeLeaveImpl", ptr %this1, i32 0, i32 0
  %0 = load ptr, ptr %fn.addr, align 8
  call void @llvm.memcpy.p0.p0.i64(ptr align 8 %fn_, ptr align 8 %0, i64 8, i1 false)
  %active_ = getelementptr inbounds %"struct.node::OnScopeLeaveImpl", ptr %this1, i32 0, i32 1
  store i8 1, ptr %active_, align 8
  ret void
}

; Function Attrs: mustprogress nounwind uwtable
define internal void @"_ZN4node16OnScopeLeaveImplIZNS_4quic10TLSContext17InitiateKeyUpdateEvE3$_0ED2Ev"(ptr noundef nonnull align 8 dereferenceable(9) %this) unnamed_addr #5 align 2 {
entry:
  %this.addr = alloca ptr, align 8
  store ptr %this, ptr %this.addr, align 8
  %this1 = load ptr, ptr %this.addr, align 8
  %active_ = getelementptr inbounds %"struct.node::OnScopeLeaveImpl", ptr %this1, i32 0, i32 1
  %0 = load i8, ptr %active_, align 8
  %tobool = trunc i8 %0 to i1
  br i1 %tobool, label %if.then, label %if.end

if.then:                                          ; preds = %entry
  %fn_ = getelementptr inbounds %"struct.node::OnScopeLeaveImpl", ptr %this1, i32 0, i32 0
  call void @"_ZZN4node4quic10TLSContext17InitiateKeyUpdateEvENK3$_0clEv"(ptr noundef nonnull align 8 dereferenceable(8) %fn_)
  br label %if.end

if.end:                                           ; preds = %if.then, %entry
  ret void
}

; Function Attrs: mustprogress nounwind uwtable
define internal void @"_ZN4node12OnScopeLeaveIZNS_4quic10TLSContext17InitiateKeyUpdateEvE3$_0EENS_16OnScopeLeaveImplIT_EEOS5_"(ptr noalias sret(%"struct.node::OnScopeLeaveImpl") align 8 %agg.result, ptr noundef nonnull align 8 dereferenceable(8) %fn) #5 {
entry:
  %result.ptr = alloca ptr, align 8
  %fn.addr = alloca ptr, align 8
  store ptr %agg.result, ptr %result.ptr, align 8
  store ptr %fn, ptr %fn.addr, align 8
  %0 = load ptr, ptr %fn.addr, align 8
  call void @"_ZN4node16OnScopeLeaveImplIZNS_4quic10TLSContext17InitiateKeyUpdateEvE3$_0EC2EOS3_"(ptr noundef nonnull align 8 dereferenceable(9) %agg.result, ptr noundef nonnull align 8 dereferenceable(8) %0)
  ret void
}

; Function Attrs: mustprogress nounwind uwtable
define dso_local noundef zeroext i1 @_ZN4node4quic10TLSContext17InitiateKeyUpdateEv(ptr noundef nonnull align 8 dereferenceable(352) %this) #5 align 2 {
entry:
  %retval = alloca i1, align 1
  %this.addr = alloca ptr, align 8
  %leave = alloca %"struct.node::OnScopeLeaveImpl", align 8
  %ref.tmp = alloca %class.anon, align 8
  store ptr %this, ptr %this.addr, align 8
  %this1 = load ptr, ptr %this.addr, align 8
  %session_ = getelementptr inbounds %"class.node::quic::TLSContext", ptr %this1, i32 0, i32 5
  %0 = load ptr, ptr %session_, align 8
  %call = call noundef zeroext i1 @_ZNK4node4quic7Session12is_destroyedEv(ptr noundef nonnull align 8 dereferenceable(2616) %0)
  br i1 %call, label %if.then, label %lor.lhs.false

lor.lhs.false:                                    ; preds = %entry
  %in_key_update_ = getelementptr inbounds %"class.node::quic::TLSContext", ptr %this1, i32 0, i32 10
  %1 = load i8, ptr %in_key_update_, align 8
  %tobool = trunc i8 %1 to i1
  br i1 %tobool, label %if.then, label %if.end

if.then:                                          ; preds = %lor.lhs.false, %entry
  store i1 false, ptr %retval, align 1
  br label %return

if.end:                                           ; preds = %lor.lhs.false
  %2 = getelementptr inbounds %class.anon, ptr %ref.tmp, i32 0, i32 0
  store ptr %this1, ptr %2, align 8
  call void @"_ZN4node12OnScopeLeaveIZNS_4quic10TLSContext17InitiateKeyUpdateEvE3$_0EENS_16OnScopeLeaveImplIT_EEOS5_"(ptr sret(%"struct.node::OnScopeLeaveImpl") align 8 %leave, ptr noundef nonnull align 8 dereferenceable(8) %ref.tmp)
  %in_key_update_2 = getelementptr inbounds %"class.node::quic::TLSContext", ptr %this1, i32 0, i32 10
  store i8 1, ptr %in_key_update_2, align 8
  %session_3 = getelementptr inbounds %"class.node::quic::TLSContext", ptr %this1, i32 0, i32 5
  %3 = load ptr, ptr %session_3, align 8
  %call4 = call noundef ptr @_ZNK4node4quic7SessioncvP11ngtcp2_connEv(ptr noundef nonnull align 8 dereferenceable(2616) %3)
  %call5 = call i64 @uv_hrtime()
  %call6 = call i32 @ngtcp2_conn_initiate_key_update(ptr noundef %call4, i64 noundef %call5)
  %cmp = icmp eq i32 %call6, 0
  store i1 %cmp, ptr %retval, align 1
  call void @"_ZN4node16OnScopeLeaveImplIZNS_4quic10TLSContext17InitiateKeyUpdateEvE3$_0ED2Ev"(ptr noundef nonnull align 8 dereferenceable(9) %leave) #3
  br label %return

return:                                           ; preds = %if.end, %if.then
  %4 = load i1, ptr %retval, align 1
  ret i1 %4
}