; Function Attrs: mustprogress nounwind uwtable
define dso_local noundef zeroext i1 @_ZN4node4quic10TLSContext17InitiateKeyUpdateEv(ptr nocapture noundef nonnull align 8 dereferenceable(352) %this) local_unnamed_addr #4 align 2 {
entry:
  %session_ = getelementptr inbounds i8, ptr %this, i64 40
  %0 = load ptr, ptr %session_, align 8
  %call = tail call noundef zeroext i1 @_ZNK4node4quic7Session12is_destroyedEv(ptr noundef nonnull align 8 dereferenceable(2616) %0) #18
  br i1 %call, label %return, label %lor.lhs.false

lor.lhs.false:                                    ; preds = %entry
  %in_key_update_ = getelementptr inbounds i8, ptr %this, i64 344
  %1 = load i8, ptr %in_key_update_, align 8
  %2 = and i8 %1, 1
  %tobool.not = icmp eq i8 %2, 0
  br i1 %tobool.not, label %"_ZN4node16OnScopeLeaveImplIZNS_4quic10TLSContext17InitiateKeyUpdateEvE3$_0ED2Ev.exit", label %return

"_ZN4node16OnScopeLeaveImplIZNS_4quic10TLSContext17InitiateKeyUpdateEvE3$_0ED2Ev.exit": ; preds = %lor.lhs.false
  store i8 1, ptr %in_key_update_, align 8
  %3 = load ptr, ptr %session_, align 8
  %call4 = tail call noundef ptr @_ZNK4node4quic7SessioncvP11ngtcp2_connEv(ptr noundef nonnull align 8 dereferenceable(2616) %3) #18
  %call5 = tail call i64 @uv_hrtime() #18
  %call6 = tail call i32 @ngtcp2_conn_initiate_key_update(ptr noundef %call4, i64 noundef %call5) #18
  %cmp = icmp eq i32 %call6, 0
  store i8 0, ptr %in_key_update_, align 8
  br label %return

return:                                           ; preds = %entry, %lor.lhs.false, %"_ZN4node16OnScopeLeaveImplIZNS_4quic10TLSContext17InitiateKeyUpdateEvE3$_0ED2Ev.exit"
  %retval.0 = phi i1 [ %cmp, %"_ZN4node16OnScopeLeaveImplIZNS_4quic10TLSContext17InitiateKeyUpdateEvE3$_0ED2Ev.exit" ], [ false, %lor.lhs.false ], [ false, %entry ]
  ret i1 %retval.0
}